; Function Attrs: mustprogress nounwind uwtable
define dso_local void @_ZN4llvm3lto27finalizeOptimizationRemarksESt10unique_ptrINS_14ToolOutputFileESt14default_deleteIS2_EE(ptr dead_on_unwind noalias writable writeonly sret(%"class.llvm::Error") align 8 captures(none) initializes((0, 8)) %0, ptr noundef readonly captures(none) %1) local_unnamed_addr #0 {
  %3 = load ptr, ptr %1, align 8
  %.not = icmp eq ptr %3, null
  br i1 %.not, label %_ZN4llvm12ErrorSuccessD2Ev.exit, label %4

4:                                                ; preds = %2
  %5 = getelementptr inbounds nuw i8, ptr %3, i64 32
  store i8 1, ptr %5, align 8
  %6 = load ptr, ptr %1, align 8
  %7 = getelementptr inbounds nuw i8, ptr %6, i64 144
  %8 = load ptr, ptr %7, align 8
  %9 = getelementptr inbounds nuw i8, ptr %8, i64 32
  %10 = load ptr, ptr %9, align 8
  %11 = getelementptr inbounds nuw i8, ptr %8, i64 16
  %12 = load ptr, ptr %11, align 8
  %.not.i = icmp eq ptr %10, %12
  br i1 %.not.i, label %_ZN4llvm12ErrorSuccessD2Ev.exit, label %13

13:                                               ; preds = %4
  tail call void @_ZN4llvm11raw_ostream14flush_nonemptyEv(ptr noundef nonnull align 8 dereferenceable(48) %8) #24
  br label %_ZN4llvm12ErrorSuccessD2Ev.exit

_ZN4llvm12ErrorSuccessD2Ev.exit:                  ; preds = %4, %13, %2
  store ptr null, ptr %0, align 8
  ret void
}